; Function Attrs: mustprogress nofree norecurse nosync nounwind sspstrong willreturn memory(argmem: readwrite) uwtable
define internal void @shakti_uart_receive(ptr noundef captures(none) initializes((1096, 1100)) %opaque, ptr noundef readonly captures(none) %buf, i32 %size) #3 {
entry:
  %0 = load i8, ptr %buf, align 1
  %conv = zext i8 %0 to i32
  %uart_rx = getelementptr inbounds nuw i8, ptr %opaque, i64 1096
  store i32 %conv, ptr %uart_rx, align 8
  %uart_status = getelementptr inbounds nuw i8, ptr %opaque, i64 1100
  %1 = load i32, ptr %uart_status, align 4
  %or = or i32 %1, 4
  store i32 %or, ptr %uart_status, align 4
  ret void
}